; Function Attrs: nounwind uwtable
define internal void @my_XmlDeclHandler(ptr noundef captures(none) %0, ptr noundef %1, ptr noundef %2, i32 noundef %3) #0 {
  %5 = getelementptr i8, ptr %0, i64 72
  %.val = load ptr, ptr %5, align 8, !tbaa !36
  %6 = getelementptr i8, ptr %.val, i64 144
  %7 = load ptr, ptr %6, align 8, !tbaa !14
  %.not32 = icmp eq ptr %7, null
  br i1 %.not32, label %Py_DECREF.exit, label %8

8:                                                ; preds = %4
  %9 = tail call ptr @PyErr_Occurred() #8
  %.not17 = icmp eq ptr %9, null
  br i1 %.not17, label %10, label %Py_DECREF.exit

10:                                               ; preds = %8
  %11 = getelementptr inbounds nuw i8, ptr %0, i64 40
  %12 = load ptr, ptr %11, align 8, !tbaa !29
  %13 = icmp eq ptr %12, null
  br i1 %13, label %flush_character_buffer.exit.thread, label %14

14:                                               ; preds = %10
  %15 = getelementptr inbounds nuw i8, ptr %0, i64 52
  %16 = load i32, ptr %15, align 4, !tbaa !35
  %17 = icmp eq i32 %16, 0
  br i1 %17, label %flush_character_buffer.exit.thread, label %flush_character_buffer.exit

flush_character_buffer.exit:                      ; preds = %14
  %18 = tail call fastcc i32 @call_character_handler(ptr noundef nonnull %0, ptr noundef nonnull %12, i32 noundef %16)
  store i32 0, ptr %15, align 4, !tbaa !35
  %19 = icmp slt i32 %18, 0
  br i1 %19, label %Py_DECREF.exit, label %flush_character_buffer.exit.thread

flush_character_buffer.exit.thread:               ; preds = %10, %14, %flush_character_buffer.exit
  %20 = tail call ptr (ptr, ...) @Py_BuildValue(ptr noundef nonnull @.str.68, ptr noundef nonnull @conv_string_to_unicode, ptr noundef %1, ptr noundef nonnull @conv_string_to_unicode, ptr noundef %2, i32 noundef %3) #8
  %.not18 = icmp eq ptr %20, null
  br i1 %.not18, label %21, label %44

21:                                               ; preds = %flush_character_buffer.exit.thread
  %22 = load ptr, ptr @handler_info, align 16, !tbaa !40
  %.not15.i.i = icmp eq ptr %22, null
  br i1 %.not15.i.i, label %flag_error.exit, label %.lr.ph.i.i

.lr.ph.i.i:                                       ; preds = %21
  %23 = getelementptr inbounds nuw i8, ptr %0, i64 16
  br label %.lr.ph.split.us.i.i

.lr.ph.split.us.i.i:                              ; preds = %Py_DECREF.exit.us.i.i, %.lr.ph.i.i
  %24 = phi ptr [ %40, %Py_DECREF.exit.us.i.i ], [ @handler_info, %.lr.ph.i.i ]
  %25 = phi i64 [ %39, %Py_DECREF.exit.us.i.i ], [ 0, %.lr.ph.i.i ]
  %.016.us.i.i = phi i32 [ %38, %Py_DECREF.exit.us.i.i ], [ 0, %.lr.ph.i.i ]
  %26 = load ptr, ptr %5, align 8, !tbaa !36
  %27 = getelementptr ptr, ptr %26, i64 %25
  %28 = load ptr, ptr %27, align 8, !tbaa !14
  %.not14.us.i.i = icmp eq ptr %28, null
  br i1 %.not14.us.i.i, label %Py_DECREF.exit.us.i.i, label %29

29:                                               ; preds = %.lr.ph.split.us.i.i
  store ptr null, ptr %27, align 8, !tbaa !14
  %30 = load i32, ptr %28, align 8, !tbaa !13
  %.not.i.us.i.i = icmp sgt i32 %30, -1
  br i1 %.not.i.us.i.i, label %31, label %Py_DECREF.exit.us.i.i

31:                                               ; preds = %29
  %32 = add nsw i32 %30, -1
  store i32 %32, ptr %28, align 8, !tbaa !13
  %33 = icmp eq i32 %32, 0
  br i1 %33, label %34, label %Py_DECREF.exit.us.i.i

34:                                               ; preds = %31
  tail call void @_Py_Dealloc(ptr noundef nonnull %28) #8
  br label %Py_DECREF.exit.us.i.i

Py_DECREF.exit.us.i.i:                            ; preds = %34, %31, %29, %.lr.ph.split.us.i.i
  %35 = getelementptr inbounds nuw i8, ptr %24, i64 8
  %36 = load ptr, ptr %35, align 8, !tbaa !56
  %37 = load ptr, ptr %23, align 8, !tbaa !39
  tail call void %36(ptr noundef %37, ptr noundef null) #8
  %38 = add i32 %.016.us.i.i, 1
  %39 = sext i32 %38 to i64
  %40 = getelementptr [64 x %struct.HandlerInfo], ptr @handler_info, i64 0, i64 %39
  %41 = load ptr, ptr %40, align 16, !tbaa !40
  %.not.us.i.i = icmp eq ptr %41, null
  br i1 %.not.us.i.i, label %flag_error.exit, label %.lr.ph.split.us.i.i, !llvm.loop !45

flag_error.exit:                                  ; preds = %Py_DECREF.exit.us.i.i, %21
  %42 = getelementptr inbounds nuw i8, ptr %0, i64 16
  %43 = load ptr, ptr %42, align 8, !tbaa !39
  tail call void @PyExpat_XML_SetExternalEntityRefHandler(ptr noundef %43, ptr noundef nonnull @error_external_entity_ref_handler) #8
  br label %Py_DECREF.exit

44:                                               ; preds = %flush_character_buffer.exit.thread
  %45 = getelementptr inbounds nuw i8, ptr %0, i64 32
  store i32 1, ptr %45, align 8, !tbaa !60
  %46 = load ptr, ptr %5, align 8, !tbaa !36
  %47 = getelementptr i8, ptr %46, i64 144
  %48 = load ptr, ptr %47, align 8, !tbaa !14
  %49 = tail call ptr @PyObject_Call(ptr noundef %48, ptr noundef nonnull %20, ptr noundef null) #8
  %50 = icmp eq ptr %49, null
  br i1 %50, label %51, label %call_with_frame.exit

51:                                               ; preds = %44
  tail call void @_PyTraceback_Add(ptr noundef nonnull @.str.69, ptr noundef nonnull @.str.43, i32 noundef 519) #8
  %52 = getelementptr inbounds nuw i8, ptr %0, i64 16
  %53 = load ptr, ptr %52, align 8, !tbaa !39
  %54 = tail call i32 @PyExpat_XML_StopParser(ptr noundef %53, i8 noundef zeroext 0) #8
  br label %call_with_frame.exit

call_with_frame.exit:                             ; preds = %44, %51
  store i32 0, ptr %45, align 8, !tbaa !60
  %55 = load i32, ptr %20, align 8, !tbaa !13
  %.not.i19 = icmp sgt i32 %55, -1
  br i1 %.not.i19, label %56, label %Py_DECREF.exit20

56:                                               ; preds = %call_with_frame.exit
  %57 = add nsw i32 %55, -1
  store i32 %57, ptr %20, align 8, !tbaa !13
  %58 = icmp eq i32 %57, 0
  br i1 %58, label %59, label %Py_DECREF.exit20

59:                                               ; preds = %56
  tail call void @_Py_Dealloc(ptr noundef nonnull %20) #8
  br label %Py_DECREF.exit20

Py_DECREF.exit20:                                 ; preds = %call_with_frame.exit, %56, %59
  br i1 %50, label %60, label %83

60:                                               ; preds = %Py_DECREF.exit20
  %61 = load ptr, ptr @handler_info, align 16, !tbaa !40
  %.not15.i.i22 = icmp eq ptr %61, null
  br i1 %.not15.i.i22, label %flag_error.exit30, label %.lr.ph.i.i23

.lr.ph.i.i23:                                     ; preds = %60
  %62 = getelementptr inbounds nuw i8, ptr %0, i64 16
  br label %.lr.ph.split.us.i.i24

.lr.ph.split.us.i.i24:                            ; preds = %Py_DECREF.exit.us.i.i28, %.lr.ph.i.i23
  %63 = phi ptr [ %79, %Py_DECREF.exit.us.i.i28 ], [ @handler_info, %.lr.ph.i.i23 ]
  %64 = phi i64 [ %78, %Py_DECREF.exit.us.i.i28 ], [ 0, %.lr.ph.i.i23 ]
  %.016.us.i.i25 = phi i32 [ %77, %Py_DECREF.exit.us.i.i28 ], [ 0, %.lr.ph.i.i23 ]
  %65 = load ptr, ptr %5, align 8, !tbaa !36
  %66 = getelementptr ptr, ptr %65, i64 %64
  %67 = load ptr, ptr %66, align 8, !tbaa !14
  %.not14.us.i.i26 = icmp eq ptr %67, null
  br i1 %.not14.us.i.i26, label %Py_DECREF.exit.us.i.i28, label %68

68:                                               ; preds = %.lr.ph.split.us.i.i24
  store ptr null, ptr %66, align 8, !tbaa !14
  %69 = load i32, ptr %67, align 8, !tbaa !13
  %.not.i.us.i.i27 = icmp sgt i32 %69, -1
  br i1 %.not.i.us.i.i27, label %70, label %Py_DECREF.exit.us.i.i28

70:                                               ; preds = %68
  %71 = add nsw i32 %69, -1
  store i32 %71, ptr %67, align 8, !tbaa !13
  %72 = icmp eq i32 %71, 0
  br i1 %72, label %73, label %Py_DECREF.exit.us.i.i28

73:                                               ; preds = %70
  tail call void @_Py_Dealloc(ptr noundef nonnull %67) #8
  br label %Py_DECREF.exit.us.i.i28

Py_DECREF.exit.us.i.i28:                          ; preds = %73, %70, %68, %.lr.ph.split.us.i.i24
  %74 = getelementptr inbounds nuw i8, ptr %63, i64 8
  %75 = load ptr, ptr %74, align 8, !tbaa !56
  %76 = load ptr, ptr %62, align 8, !tbaa !39
  tail call void %75(ptr noundef %76, ptr noundef null) #8
  %77 = add i32 %.016.us.i.i25, 1
  %78 = sext i32 %77 to i64
  %79 = getelementptr [64 x %struct.HandlerInfo], ptr @handler_info, i64 0, i64 %78
  %80 = load ptr, ptr %79, align 16, !tbaa !40
  %.not.us.i.i29 = icmp eq ptr %80, null
  br i1 %.not.us.i.i29, label %flag_error.exit30, label %.lr.ph.split.us.i.i24, !llvm.loop !45

flag_error.exit30:                                ; preds = %Py_DECREF.exit.us.i.i28, %60
  %81 = getelementptr inbounds nuw i8, ptr %0, i64 16
  %82 = load ptr, ptr %81, align 8, !tbaa !39
  tail call void @PyExpat_XML_SetExternalEntityRefHandler(ptr noundef %82, ptr noundef nonnull @error_external_entity_ref_handler) #8
  br label %Py_DECREF.exit

83:                                               ; preds = %Py_DECREF.exit20
  %84 = load i32, ptr %49, align 8, !tbaa !13
  %.not.i = icmp sgt i32 %84, -1
  br i1 %.not.i, label %85, label %Py_DECREF.exit

85:                                               ; preds = %83
  %86 = add nsw i32 %84, -1
  store i32 %86, ptr %49, align 8, !tbaa !13
  %87 = icmp eq i32 %86, 0
  br i1 %87, label %88, label %Py_DECREF.exit

88:                                               ; preds = %85
  tail call void @_Py_Dealloc(ptr noundef nonnull %49) #8
  br label %Py_DECREF.exit

Py_DECREF.exit:                                   ; preds = %88, %85, %83, %4, %flush_character_buffer.exit, %8, %flag_error.exit30, %flag_error.exit
  ret void
}